target datalayout = "e-m:e-p270:32:32-p271:32:32-p272:64:64-i64:64-i128:128-f80:128-n8:16:32:64-S128"
target triple = "x86_64-pc-linux-gnu"

%struct.AVIOContext = type { ptr, ptr, i32, ptr, ptr, ptr, ptr, ptr, ptr, i64, i32, i32, i32, i32, i32, i64, ptr, ptr, ptr, ptr, i32, i32, ptr, ptr, ptr, i32, ptr, i64, i64 }

@ff_log2_tab = external constant [256 x i8], align 16

; Function Attrs: nounwind uwtable
define i32 @avio_r8(ptr noundef %0) #0 {
  %2 = alloca i32, align 4
  %3 = alloca ptr, align 8
  store ptr %0, ptr %3, align 8, !tbaa !14
  %4 = load ptr, ptr %3, align 8, !tbaa !14
  %5 = getelementptr inbounds nuw %struct.AVIOContext, ptr %4, i32 0, i32 3
  %6 = load ptr, ptr %5, align 8, !tbaa !23
  %7 = load ptr, ptr %3, align 8, !tbaa !14
  %8 = getelementptr inbounds nuw %struct.AVIOContext, ptr %7, i32 0, i32 4
  %9 = load ptr, ptr %8, align 8, !tbaa !38
  %10 = icmp uge ptr %6, %9
  br i1 %10, label %11, label %13

11:                                               ; preds = %1
  %12 = load ptr, ptr %3, align 8, !tbaa !14
  call void @fill_buffer(ptr noundef %12)
  br label %13

13:                                               ; preds = %11, %1
  %14 = load ptr, ptr %3, align 8, !tbaa !14
  %15 = getelementptr inbounds nuw %struct.AVIOContext, ptr %14, i32 0, i32 3
  %16 = load ptr, ptr %15, align 8, !tbaa !23
  %17 = load ptr, ptr %3, align 8, !tbaa !14
  %18 = getelementptr inbounds nuw %struct.AVIOContext, ptr %17, i32 0, i32 4
  %19 = load ptr, ptr %18, align 8, !tbaa !38
  %20 = icmp ult ptr %16, %19
  br i1 %20, label %21, label %28

21:                                               ; preds = %13
  %22 = load ptr, ptr %3, align 8, !tbaa !14
  %23 = getelementptr inbounds nuw %struct.AVIOContext, ptr %22, i32 0, i32 3
  %24 = load ptr, ptr %23, align 8, !tbaa !23
  %25 = getelementptr inbounds nuw i8, ptr %24, i32 1
  store ptr %25, ptr %23, align 8, !tbaa !23
  %26 = load i8, ptr %24, align 1, !tbaa !50
  %27 = zext i8 %26 to i32
  store i32 %27, ptr %2, align 4
  br label %29

28:                                               ; preds = %13
  store i32 0, ptr %2, align 4
  br label %29

29:                                               ; preds = %28, %21
  %30 = load i32, ptr %2, align 4
  ret i32 %30
}

; Function Attrs: alwaysinline nounwind willreturn memory(none) uwtable
define internal i32 @ff_log2_c(i32 noundef %0) #9 {
  %2 = alloca i32, align 4
  %3 = alloca i32, align 4
  store i32 %0, ptr %2, align 4, !tbaa !11
  call void @llvm.lifetime.start.p0(i64 4, ptr %3) #12
  store i32 0, ptr %3, align 4, !tbaa !11
  %4 = load i32, ptr %2, align 4, !tbaa !11
  %5 = and i32 %4, -65536
  %6 = icmp ne i32 %5, 0
  br i1 %6, label %7, label %12

7:                                                ; preds = %1
  %8 = load i32, ptr %2, align 4, !tbaa !11
  %9 = lshr i32 %8, 16
  store i32 %9, ptr %2, align 4, !tbaa !11
  %10 = load i32, ptr %3, align 4, !tbaa !11
  %11 = add nsw i32 %10, 16
  store i32 %11, ptr %3, align 4, !tbaa !11
  br label %12

12:                                               ; preds = %7, %1
  %13 = load i32, ptr %2, align 4, !tbaa !11
  %14 = and i32 %13, 65280
  %15 = icmp ne i32 %14, 0
  br i1 %15, label %16, label %21

16:                                               ; preds = %12
  %17 = load i32, ptr %2, align 4, !tbaa !11
  %18 = lshr i32 %17, 8
  store i32 %18, ptr %2, align 4, !tbaa !11
  %19 = load i32, ptr %3, align 4, !tbaa !11
  %20 = add nsw i32 %19, 8
  store i32 %20, ptr %3, align 4, !tbaa !11
  br label %21

21:                                               ; preds = %16, %12
  %22 = load i32, ptr %2, align 4, !tbaa !11
  %23 = zext i32 %22 to i64
  %24 = getelementptr inbounds nuw [256 x i8], ptr @ff_log2_tab, i64 0, i64 %23
  %25 = load i8, ptr %24, align 1, !tbaa !50
  %26 = zext i8 %25 to i32
  %27 = load i32, ptr %3, align 4, !tbaa !11
  %28 = add nsw i32 %27, %26
  store i32 %28, ptr %3, align 4, !tbaa !11
  %29 = load i32, ptr %3, align 4, !tbaa !11
  call void @llvm.lifetime.end.p0(i64 4, ptr %3) #12
  ret i32 %29
}

; Function Attrs: nounwind uwtable
define i32 @avio_rl16(ptr noundef %0) #0 {
  %2 = alloca ptr, align 8
  %3 = alloca i32, align 4
  store ptr %0, ptr %2, align 8, !tbaa !14
  call void @llvm.lifetime.start.p0(i64 4, ptr %3) #12
  %4 = load ptr, ptr %2, align 8, !tbaa !14
  %5 = call i32 @avio_r8(ptr noundef %4)
  store i32 %5, ptr %3, align 4, !tbaa !11
  %6 = load ptr, ptr %2, align 8, !tbaa !14
  %7 = call i32 @avio_r8(ptr noundef %6)
  %8 = shl i32 %7, 8
  %9 = load i32, ptr %3, align 4, !tbaa !11
  %10 = or i32 %9, %8
  store i32 %10, ptr %3, align 4, !tbaa !11
  %11 = load i32, ptr %3, align 4, !tbaa !11
  call void @llvm.lifetime.end.p0(i64 4, ptr %3) #12
  ret i32 %11
}

; Function Attrs: nounwind uwtable
define i32 @avio_get_str16le(ptr noundef %0, i32 noundef %1, ptr noundef %2, i32 noundef %3) #0 {
  %5 = alloca i32, align 4
  %6 = alloca ptr, align 8
  %7 = alloca i32, align 4
  %8 = alloca ptr, align 8
  %9 = alloca i32, align 4
  %10 = alloca ptr, align 8
  %11 = alloca i32, align 4
  %12 = alloca i32, align 4
  %13 = alloca i8, align 1
  %14 = alloca i32, align 4
  %15 = alloca i32, align 4
  %16 = alloca i32, align 4
  %17 = alloca i32, align 4
  %18 = alloca i32, align 4
  store ptr %0, ptr %6, align 8, !tbaa !14
  store i32 %1, ptr %7, align 4, !tbaa !11
  store ptr %2, ptr %8, align 8, !tbaa !9
  store i32 %3, ptr %9, align 4, !tbaa !11
  call void @llvm.lifetime.start.p0(i64 8, ptr %10) #12
  %19 = load ptr, ptr %8, align 8, !tbaa !9
  store ptr %19, ptr %10, align 8, !tbaa !9
  call void @llvm.lifetime.start.p0(i64 4, ptr %11) #12
  store i32 0, ptr %11, align 4, !tbaa !11
  %20 = load i32, ptr %9, align 4, !tbaa !11
  %21 = icmp sle i32 %20, 0
  br i1 %21, label %22, label %23

22:                                               ; preds = %4
  store i32 -22, ptr %5, align 4
  store i32 1, ptr %12, align 4
  br label %160

23:                                               ; preds = %4
  br label %24

24:                                               ; preds = %156, %23
  %25 = load i32, ptr %11, align 4, !tbaa !11
  %26 = add nsw i32 %25, 1
  %27 = load i32, ptr %7, align 4, !tbaa !11
  %28 = icmp slt i32 %26, %27
  br i1 %28, label %29, label %157

29:                                               ; preds = %24
  call void @llvm.lifetime.start.p0(i64 1, ptr %13) #12
  call void @llvm.lifetime.start.p0(i64 4, ptr %14) #12
  %30 = load i32, ptr %11, align 4, !tbaa !11
  %31 = add nsw i32 %30, 2
  store i32 %31, ptr %11, align 4, !tbaa !11
  %32 = load i32, ptr %7, align 4, !tbaa !11
  %33 = icmp sle i32 %31, %32
  br i1 %33, label %34, label %37

34:                                               ; preds = %29
  %35 = load ptr, ptr %6, align 8, !tbaa !14
  %36 = call i32 @avio_rl16(ptr noundef %35)
  br label %38

37:                                               ; preds = %29
  br label %38

38:                                               ; preds = %37, %34
  %39 = phi i32 [ %36, %34 ], [ 0, %37 ]
  store i32 %39, ptr %14, align 4, !tbaa !11
  call void @llvm.lifetime.start.p0(i64 4, ptr %15) #12
  %40 = load i32, ptr %14, align 4, !tbaa !11
  %41 = sub i32 %40, 55296
  store i32 %41, ptr %15, align 4, !tbaa !11
  %42 = load i32, ptr %15, align 4, !tbaa !11
  %43 = icmp ult i32 %42, 2048
  br i1 %43, label %44, label %68

44:                                               ; preds = %38
  %45 = load i32, ptr %11, align 4, !tbaa !11
  %46 = add nsw i32 %45, 2
  store i32 %46, ptr %11, align 4, !tbaa !11
  %47 = load i32, ptr %7, align 4, !tbaa !11
  %48 = icmp sle i32 %46, %47
  br i1 %48, label %49, label %52

49:                                               ; preds = %44
  %50 = load ptr, ptr %6, align 8, !tbaa !14
  %51 = call i32 @avio_rl16(ptr noundef %50)
  br label %53

52:                                               ; preds = %44
  br label %53

53:                                               ; preds = %52, %49
  %54 = phi i32 [ %51, %49 ], [ 0, %52 ]
  %55 = sub i32 %54, 56320
  store i32 %55, ptr %14, align 4, !tbaa !11
  %56 = load i32, ptr %14, align 4, !tbaa !11
  %57 = icmp ugt i32 %56, 1023
  br i1 %57, label %61, label %58

58:                                               ; preds = %53
  %59 = load i32, ptr %15, align 4, !tbaa !11
  %60 = icmp ugt i32 %59, 1023
  br i1 %60, label %61, label %62

61:                                               ; preds = %58, %53
  store i32 3, ptr %12, align 4
  br label %69

62:                                               ; preds = %58
  %63 = load i32, ptr %15, align 4, !tbaa !11
  %64 = shl i32 %63, 10
  %65 = add i32 %64, 65536
  %66 = load i32, ptr %14, align 4, !tbaa !11
  %67 = add i32 %66, %65
  store i32 %67, ptr %14, align 4, !tbaa !11
  br label %68

68:                                               ; preds = %62, %38
  store i32 0, ptr %12, align 4
  br label %69

69:                                               ; preds = %68, %61
  call void @llvm.lifetime.end.p0(i64 4, ptr %15) #12
  %70 = load i32, ptr %12, align 4
  switch i32 %70, label %154 [
    i32 0, label %71
  ]

71:                                               ; preds = %69
  %72 = load i32, ptr %14, align 4, !tbaa !11
  %73 = icmp ne i32 %72, 0
  br i1 %73, label %75, label %74

74:                                               ; preds = %71
  store i32 3, ptr %12, align 4
  br label %154

75:                                               ; preds = %71
  call void @llvm.lifetime.start.p0(i64 4, ptr %16) #12
  call void @llvm.lifetime.start.p0(i64 4, ptr %17) #12
  call void @llvm.lifetime.start.p0(i64 4, ptr %18) #12
  %76 = load i32, ptr %14, align 4, !tbaa !11
  store i32 %76, ptr %18, align 4, !tbaa !11
  %77 = load i32, ptr %18, align 4, !tbaa !11
  %78 = icmp ult i32 %77, 128
  br i1 %78, label %79, label %96

79:                                               ; preds = %75
  %80 = load i32, ptr %18, align 4, !tbaa !11
  %81 = trunc i32 %80 to i8
  store i8 %81, ptr %13, align 1, !tbaa !50
  %82 = load ptr, ptr %10, align 8, !tbaa !9
  %83 = load ptr, ptr %8, align 8, !tbaa !9
  %84 = ptrtoint ptr %82 to i64
  %85 = ptrtoint ptr %83 to i64
  %86 = sub i64 %84, %85
  %87 = load i32, ptr %9, align 4, !tbaa !11
  %88 = sub nsw i32 %87, 1
  %89 = sext i32 %88 to i64
  %90 = icmp slt i64 %86, %89
  br i1 %90, label %91, label %95

91:                                               ; preds = %79
  %92 = load i8, ptr %13, align 1, !tbaa !50
  %93 = load ptr, ptr %10, align 8, !tbaa !9
  %94 = getelementptr inbounds nuw i8, ptr %93, i32 1
  store ptr %94, ptr %10, align 8, !tbaa !9
  store i8 %92, ptr %93, align 1, !tbaa !50
  br label %95

95:                                               ; preds = %91, %79
  br label %153

96:                                               ; preds = %75
  %97 = load i32, ptr %18, align 4, !tbaa !11
  %98 = call i32 @ff_log2_c(i32 noundef %97) #14
  %99 = add nsw i32 %98, 4
  %100 = sdiv i32 %99, 5
  store i32 %100, ptr %16, align 4, !tbaa !11
  %101 = load i32, ptr %16, align 4, !tbaa !11
  %102 = sub nsw i32 %101, 1
  %103 = mul nsw i32 %102, 6
  store i32 %103, ptr %17, align 4, !tbaa !11
  %104 = load i32, ptr %16, align 4, !tbaa !11
  %105 = ashr i32 256, %104
  %106 = sub nsw i32 256, %105
  %107 = load i32, ptr %18, align 4, !tbaa !11
  %108 = load i32, ptr %17, align 4, !tbaa !11
  %109 = lshr i32 %107, %108
  %110 = or i32 %106, %109
  %111 = trunc i32 %110 to i8
  store i8 %111, ptr %13, align 1, !tbaa !50
  %112 = load ptr, ptr %10, align 8, !tbaa !9
  %113 = load ptr, ptr %8, align 8, !tbaa !9
  %114 = ptrtoint ptr %112 to i64
  %115 = ptrtoint ptr %113 to i64
  %116 = sub i64 %114, %115
  %117 = load i32, ptr %9, align 4, !tbaa !11
  %118 = sub nsw i32 %117, 1
  %119 = sext i32 %118 to i64
  %120 = icmp slt i64 %116, %119
  br i1 %120, label %121, label %125

121:                                              ; preds = %96
  %122 = load i8, ptr %13, align 1, !tbaa !50
  %123 = load ptr, ptr %10, align 8, !tbaa !9
  %124 = getelementptr inbounds nuw i8, ptr %123, i32 1
  store ptr %124, ptr %10, align 8, !tbaa !9
  store i8 %122, ptr %123, align 1, !tbaa !50
  br label %125

125:                                              ; preds = %121, %96
  br label %126

126:                                              ; preds = %151, %125
  %127 = load i32, ptr %17, align 4, !tbaa !11
  %128 = icmp sge i32 %127, 6
  br i1 %128, label %129, label %152

129:                                              ; preds = %126
  %130 = load i32, ptr %17, align 4, !tbaa !11
  %131 = sub nsw i32 %130, 6
  store i32 %131, ptr %17, align 4, !tbaa !11
  %132 = load i32, ptr %18, align 4, !tbaa !11
  %133 = load i32, ptr %17, align 4, !tbaa !11
  %134 = lshr i32 %132, %133
  %135 = and i32 %134, 63
  %136 = or i32 128, %135
  %137 = trunc i32 %136 to i8
  store i8 %137, ptr %13, align 1, !tbaa !50
  %138 = load ptr, ptr %10, align 8, !tbaa !9
  %139 = load ptr, ptr %8, align 8, !tbaa !9
  %140 = ptrtoint ptr %138 to i64
  %141 = ptrtoint ptr %139 to i64
  %142 = sub i64 %140, %141
  %143 = load i32, ptr %9, align 4, !tbaa !11
  %144 = sub nsw i32 %143, 1
  %145 = sext i32 %144 to i64
  %146 = icmp slt i64 %142, %145
  br i1 %146, label %147, label %151

147:                                              ; preds = %129
  %148 = load i8, ptr %13, align 1, !tbaa !50
  %149 = load ptr, ptr %10, align 8, !tbaa !9
  %150 = getelementptr inbounds nuw i8, ptr %149, i32 1
  store ptr %150, ptr %10, align 8, !tbaa !9
  store i8 %148, ptr %149, align 1, !tbaa !50
  br label %151

151:                                              ; preds = %147, %129
  br label %126, !llvm.loop !80

152:                                              ; preds = %126
  br label %153

153:                                              ; preds = %152, %95
  call void @llvm.lifetime.end.p0(i64 4, ptr %18) #12
  call void @llvm.lifetime.end.p0(i64 4, ptr %17) #12
  call void @llvm.lifetime.end.p0(i64 4, ptr %16) #12
  store i32 0, ptr %12, align 4
  br label %154

154:                                              ; preds = %153, %74, %69
  call void @llvm.lifetime.end.p0(i64 4, ptr %14) #12
  call void @llvm.lifetime.end.p0(i64 1, ptr %13) #12
  %155 = load i32, ptr %12, align 4
  switch i32 %155, label %162 [
    i32 0, label %156
    i32 3, label %157
  ]

156:                                              ; preds = %154
  br label %24, !llvm.loop !81

157:                                              ; preds = %154, %24
  %158 = load ptr, ptr %10, align 8, !tbaa !9
  store i8 0, ptr %158, align 1, !tbaa !50
  %159 = load i32, ptr %11, align 4, !tbaa !11
  store i32 %159, ptr %5, align 4
  store i32 1, ptr %12, align 4
  br label %160

160:                                              ; preds = %157, %22
  call void @llvm.lifetime.end.p0(i64 4, ptr %11) #12
  call void @llvm.lifetime.end.p0(i64 8, ptr %10) #12
  %161 = load i32, ptr %5, align 4
  ret i32 %161

162:                                              ; preds = %154
  unreachable
}